target datalayout = "e-m:e-p270:32:32-p271:32:32-p272:64:64-i64:64-i128:128-f80:128-n8:16:32:64-S128"
target triple = "x86_64-pc-linux-gnu"

%"class.pxrInternal_v0_24__pxrReserved__::GfMatrix3f" = type { %"class.pxrInternal_v0_24__pxrReserved__::GfMatrixData" }
%"class.pxrInternal_v0_24__pxrReserved__::GfMatrixData" = type { [9 x float] }

; Function Attrs: mustprogress uwtable
define noundef nonnull align 4 dereferenceable(36) ptr @_ZN32pxrInternal_v0_24__pxrReserved__10GfMatrix3f8SetScaleEf(ptr noundef nonnull align 4 dereferenceable(36) %0, float noundef %1) #0 align 2 {
  %3 = alloca ptr, align 8
  %4 = alloca float, align 4
  store ptr %0, ptr %3, align 8
  store float %1, ptr %4, align 4
  %5 = load ptr, ptr %3, align 8
  %6 = load float, ptr %4, align 4
  %7 = getelementptr inbounds nuw %"class.pxrInternal_v0_24__pxrReserved__::GfMatrix3f", ptr %5, i32 0, i32 0
  %8 = call noundef ptr @_ZN32pxrInternal_v0_24__pxrReserved__12GfMatrixDataIfLi3ELi3EEixEi(ptr noundef nonnull align 4 dereferenceable(36) %7, i32 noundef 0)
  %9 = getelementptr inbounds float, ptr %8, i64 0
  store float %6, ptr %9, align 4
  %10 = getelementptr inbounds nuw %"class.pxrInternal_v0_24__pxrReserved__::GfMatrix3f", ptr %5, i32 0, i32 0
  %11 = call noundef ptr @_ZN32pxrInternal_v0_24__pxrReserved__12GfMatrixDataIfLi3ELi3EEixEi(ptr noundef nonnull align 4 dereferenceable(36) %10, i32 noundef 0)
  %12 = getelementptr inbounds float, ptr %11, i64 1
  store float 0.000000e+00, ptr %12, align 4
  %13 = getelementptr inbounds nuw %"class.pxrInternal_v0_24__pxrReserved__::GfMatrix3f", ptr %5, i32 0, i32 0
  %14 = call noundef ptr @_ZN32pxrInternal_v0_24__pxrReserved__12GfMatrixDataIfLi3ELi3EEixEi(ptr noundef nonnull align 4 dereferenceable(36) %13, i32 noundef 0)
  %15 = getelementptr inbounds float, ptr %14, i64 2
  store float 0.000000e+00, ptr %15, align 4
  %16 = getelementptr inbounds nuw %"class.pxrInternal_v0_24__pxrReserved__::GfMatrix3f", ptr %5, i32 0, i32 0
  %17 = call noundef ptr @_ZN32pxrInternal_v0_24__pxrReserved__12GfMatrixDataIfLi3ELi3EEixEi(ptr noundef nonnull align 4 dereferenceable(36) %16, i32 noundef 1)
  %18 = getelementptr inbounds float, ptr %17, i64 0
  store float 0.000000e+00, ptr %18, align 4
  %19 = load float, ptr %4, align 4
  %20 = getelementptr inbounds nuw %"class.pxrInternal_v0_24__pxrReserved__::GfMatrix3f", ptr %5, i32 0, i32 0
  %21 = call noundef ptr @_ZN32pxrInternal_v0_24__pxrReserved__12GfMatrixDataIfLi3ELi3EEixEi(ptr noundef nonnull align 4 dereferenceable(36) %20, i32 noundef 1)
  %22 = getelementptr inbounds float, ptr %21, i64 1
  store float %19, ptr %22, align 4
  %23 = getelementptr inbounds nuw %"class.pxrInternal_v0_24__pxrReserved__::GfMatrix3f", ptr %5, i32 0, i32 0
  %24 = call noundef ptr @_ZN32pxrInternal_v0_24__pxrReserved__12GfMatrixDataIfLi3ELi3EEixEi(ptr noundef nonnull align 4 dereferenceable(36) %23, i32 noundef 1)
  %25 = getelementptr inbounds float, ptr %24, i64 2
  store float 0.000000e+00, ptr %25, align 4
  %26 = getelementptr inbounds nuw %"class.pxrInternal_v0_24__pxrReserved__::GfMatrix3f", ptr %5, i32 0, i32 0
  %27 = call noundef ptr @_ZN32pxrInternal_v0_24__pxrReserved__12GfMatrixDataIfLi3ELi3EEixEi(ptr noundef nonnull align 4 dereferenceable(36) %26, i32 noundef 2)
  %28 = getelementptr inbounds float, ptr %27, i64 0
  store float 0.000000e+00, ptr %28, align 4
  %29 = getelementptr inbounds nuw %"class.pxrInternal_v0_24__pxrReserved__::GfMatrix3f", ptr %5, i32 0, i32 0
  %30 = call noundef ptr @_ZN32pxrInternal_v0_24__pxrReserved__12GfMatrixDataIfLi3ELi3EEixEi(ptr noundef nonnull align 4 dereferenceable(36) %29, i32 noundef 2)
  %31 = getelementptr inbounds float, ptr %30, i64 1
  store float 0.000000e+00, ptr %31, align 4
  %32 = load float, ptr %4, align 4
  %33 = getelementptr inbounds nuw %"class.pxrInternal_v0_24__pxrReserved__::GfMatrix3f", ptr %5, i32 0, i32 0
  %34 = call noundef ptr @_ZN32pxrInternal_v0_24__pxrReserved__12GfMatrixDataIfLi3ELi3EEixEi(ptr noundef nonnull align 4 dereferenceable(36) %33, i32 noundef 2)
  %35 = getelementptr inbounds float, ptr %34, i64 2
  store float %32, ptr %35, align 4
  ret ptr %5
}

; Function Attrs: mustprogress nounwind uwtable
define linkonce_odr noundef ptr @_ZN32pxrInternal_v0_24__pxrReserved__12GfMatrixDataIfLi3ELi3EEixEi(ptr noundef nonnull align 4 dereferenceable(36) %0, i32 noundef %1) #2 comdat align 2 {
  %3 = alloca ptr, align 8
  %4 = alloca i32, align 4
  store ptr %0, ptr %3, align 8
  store i32 %1, ptr %4, align 4
  %5 = load ptr, ptr %3, align 8
  %6 = getelementptr inbounds nuw %"class.pxrInternal_v0_24__pxrReserved__::GfMatrixData", ptr %5, i32 0, i32 0
  %7 = getelementptr inbounds [9 x float], ptr %6, i64 0, i64 0
  %8 = load i32, ptr %4, align 4
  %9 = mul nsw i32 %8, 3
  %10 = sext i32 %9 to i64
  %11 = getelementptr inbounds float, ptr %7, i64 %10
  ret ptr %11
}

; Function Attrs: mustprogress nounwind uwtable
define linkonce_odr noundef double @_ZN32pxrInternal_v0_24__pxrReserved__5GfAbsEd(double noundef %0) #2 comdat {
  %2 = alloca double, align 8
  store double %0, ptr %2, align 8
  %3 = load double, ptr %2, align 8
  %4 = call double @llvm.fabs.f64(double %3)
  ret double %4
}

; Function Attrs: mustprogress nounwind uwtable
define linkonce_odr noundef ptr @_ZNK32pxrInternal_v0_24__pxrReserved__12GfMatrixDataIfLi3ELi3EEixEi(ptr noundef nonnull align 4 dereferenceable(36) %0, i32 noundef %1) #2 comdat align 2 {
  %3 = alloca ptr, align 8
  %4 = alloca i32, align 4
  store ptr %0, ptr %3, align 8
  store i32 %1, ptr %4, align 4
  %5 = load ptr, ptr %3, align 8
  %6 = getelementptr inbounds nuw %"class.pxrInternal_v0_24__pxrReserved__::GfMatrixData", ptr %5, i32 0, i32 0
  %7 = getelementptr inbounds [9 x float], ptr %6, i64 0, i64 0
  %8 = load i32, ptr %4, align 4
  %9 = mul nsw i32 %8, 3
  %10 = sext i32 %9 to i64
  %11 = getelementptr inbounds float, ptr %7, i64 %10
  ret ptr %11
}

; Function Attrs: mustprogress uwtable
define void @_ZNK32pxrInternal_v0_24__pxrReserved__10GfMatrix3f10GetInverseEPdd(ptr dead_on_unwind noalias writable sret(%"class.pxrInternal_v0_24__pxrReserved__::GfMatrix3f") align 4 %0, ptr noundef nonnull align 4 dereferenceable(36) %1, ptr noundef %2, double noundef %3) #0 align 2 {
  %5 = alloca ptr, align 8
  %6 = alloca ptr, align 8
  %7 = alloca double, align 8
  %8 = alloca double, align 8
  %9 = alloca double, align 8
  %10 = alloca double, align 8
  %11 = alloca double, align 8
  %12 = alloca double, align 8
  %13 = alloca double, align 8
  %14 = alloca double, align 8
  %15 = alloca double, align 8
  %16 = alloca double, align 8
  %17 = alloca double, align 8
  %18 = alloca double, align 8
  store ptr %1, ptr %5, align 8
  store ptr %2, ptr %6, align 8
  store double %3, ptr %7, align 8
  %19 = load ptr, ptr %5, align 8
  %20 = getelementptr inbounds nuw %"class.pxrInternal_v0_24__pxrReserved__::GfMatrix3f", ptr %19, i32 0, i32 0
  %21 = call noundef ptr @_ZNK32pxrInternal_v0_24__pxrReserved__12GfMatrixDataIfLi3ELi3EEixEi(ptr noundef nonnull align 4 dereferenceable(36) %20, i32 noundef 0)
  %22 = getelementptr inbounds float, ptr %21, i64 0
  %23 = load float, ptr %22, align 4
  %24 = fpext float %23 to double
  store double %24, ptr %8, align 8
  %25 = getelementptr inbounds nuw %"class.pxrInternal_v0_24__pxrReserved__::GfMatrix3f", ptr %19, i32 0, i32 0
  %26 = call noundef ptr @_ZNK32pxrInternal_v0_24__pxrReserved__12GfMatrixDataIfLi3ELi3EEixEi(ptr noundef nonnull align 4 dereferenceable(36) %25, i32 noundef 0)
  %27 = getelementptr inbounds float, ptr %26, i64 1
  %28 = load float, ptr %27, align 4
  %29 = fpext float %28 to double
  store double %29, ptr %9, align 8
  %30 = getelementptr inbounds nuw %"class.pxrInternal_v0_24__pxrReserved__::GfMatrix3f", ptr %19, i32 0, i32 0
  %31 = call noundef ptr @_ZNK32pxrInternal_v0_24__pxrReserved__12GfMatrixDataIfLi3ELi3EEixEi(ptr noundef nonnull align 4 dereferenceable(36) %30, i32 noundef 0)
  %32 = getelementptr inbounds float, ptr %31, i64 2
  %33 = load float, ptr %32, align 4
  %34 = fpext float %33 to double
  store double %34, ptr %10, align 8
  %35 = getelementptr inbounds nuw %"class.pxrInternal_v0_24__pxrReserved__::GfMatrix3f", ptr %19, i32 0, i32 0
  %36 = call noundef ptr @_ZNK32pxrInternal_v0_24__pxrReserved__12GfMatrixDataIfLi3ELi3EEixEi(ptr noundef nonnull align 4 dereferenceable(36) %35, i32 noundef 1)
  %37 = getelementptr inbounds float, ptr %36, i64 0
  %38 = load float, ptr %37, align 4
  %39 = fpext float %38 to double
  store double %39, ptr %11, align 8
  %40 = getelementptr inbounds nuw %"class.pxrInternal_v0_24__pxrReserved__::GfMatrix3f", ptr %19, i32 0, i32 0
  %41 = call noundef ptr @_ZNK32pxrInternal_v0_24__pxrReserved__12GfMatrixDataIfLi3ELi3EEixEi(ptr noundef nonnull align 4 dereferenceable(36) %40, i32 noundef 1)
  %42 = getelementptr inbounds float, ptr %41, i64 1
  %43 = load float, ptr %42, align 4
  %44 = fpext float %43 to double
  store double %44, ptr %12, align 8
  %45 = getelementptr inbounds nuw %"class.pxrInternal_v0_24__pxrReserved__::GfMatrix3f", ptr %19, i32 0, i32 0
  %46 = call noundef ptr @_ZNK32pxrInternal_v0_24__pxrReserved__12GfMatrixDataIfLi3ELi3EEixEi(ptr noundef nonnull align 4 dereferenceable(36) %45, i32 noundef 1)
  %47 = getelementptr inbounds float, ptr %46, i64 2
  %48 = load float, ptr %47, align 4
  %49 = fpext float %48 to double
  store double %49, ptr %13, align 8
  %50 = getelementptr inbounds nuw %"class.pxrInternal_v0_24__pxrReserved__::GfMatrix3f", ptr %19, i32 0, i32 0
  %51 = call noundef ptr @_ZNK32pxrInternal_v0_24__pxrReserved__12GfMatrixDataIfLi3ELi3EEixEi(ptr noundef nonnull align 4 dereferenceable(36) %50, i32 noundef 2)
  %52 = getelementptr inbounds float, ptr %51, i64 0
  %53 = load float, ptr %52, align 4
  %54 = fpext float %53 to double
  store double %54, ptr %14, align 8
  %55 = getelementptr inbounds nuw %"class.pxrInternal_v0_24__pxrReserved__::GfMatrix3f", ptr %19, i32 0, i32 0
  %56 = call noundef ptr @_ZNK32pxrInternal_v0_24__pxrReserved__12GfMatrixDataIfLi3ELi3EEixEi(ptr noundef nonnull align 4 dereferenceable(36) %55, i32 noundef 2)
  %57 = getelementptr inbounds float, ptr %56, i64 1
  %58 = load float, ptr %57, align 4
  %59 = fpext float %58 to double
  store double %59, ptr %15, align 8
  %60 = getelementptr inbounds nuw %"class.pxrInternal_v0_24__pxrReserved__::GfMatrix3f", ptr %19, i32 0, i32 0
  %61 = call noundef ptr @_ZNK32pxrInternal_v0_24__pxrReserved__12GfMatrixDataIfLi3ELi3EEixEi(ptr noundef nonnull align 4 dereferenceable(36) %60, i32 noundef 2)
  %62 = getelementptr inbounds float, ptr %61, i64 2
  %63 = load float, ptr %62, align 4
  %64 = fpext float %63 to double
  store double %64, ptr %16, align 8
  %65 = load double, ptr %10, align 8
  %66 = load double, ptr %12, align 8
  %67 = fmul double %65, %66
  %68 = load double, ptr %14, align 8
  %69 = load double, ptr %9, align 8
  %70 = load double, ptr %13, align 8
  %71 = fmul double %69, %70
  %72 = load double, ptr %14, align 8
  %73 = fmul double %71, %72
  %74 = fneg double %67
  %75 = call double @llvm.fmuladd.f64(double %74, double %68, double %73)
  %76 = load double, ptr %10, align 8
  %77 = load double, ptr %11, align 8
  %78 = fmul double %76, %77
  %79 = load double, ptr %15, align 8
  %80 = call double @llvm.fmuladd.f64(double %78, double %79, double %75)
  %81 = load double, ptr %8, align 8
  %82 = load double, ptr %13, align 8
  %83 = fmul double %81, %82
  %84 = load double, ptr %15, align 8
  %85 = fneg double %83
  %86 = call double @llvm.fmuladd.f64(double %85, double %84, double %80)
  %87 = load double, ptr %9, align 8
  %88 = load double, ptr %11, align 8
  %89 = fmul double %87, %88
  %90 = load double, ptr %16, align 8
  %91 = fneg double %89
  %92 = call double @llvm.fmuladd.f64(double %91, double %90, double %86)
  %93 = load double, ptr %8, align 8
  %94 = load double, ptr %12, align 8
  %95 = fmul double %93, %94
  %96 = load double, ptr %16, align 8
  %97 = call double @llvm.fmuladd.f64(double %95, double %96, double %92)
  store double %97, ptr %17, align 8
  %98 = load ptr, ptr %6, align 8
  %99 = icmp ne ptr %98, null
  br i1 %99, label %100, label %103

100:                                              ; preds = %4
  %101 = load double, ptr %17, align 8
  %102 = load ptr, ptr %6, align 8
  store double %101, ptr %102, align 8
  br label %103

103:                                              ; preds = %100, %4
  %104 = load double, ptr %17, align 8
  %105 = call noundef double @_ZN32pxrInternal_v0_24__pxrReserved__5GfAbsEd(double noundef %104)
  %106 = load double, ptr %7, align 8
  %107 = fcmp ogt double %105, %106
  br i1 %107, label %108, label %228

108:                                              ; preds = %103
  %109 = load double, ptr %17, align 8
  %110 = fdiv double 1.000000e+00, %109
  store double %110, ptr %18, align 8
  %111 = load double, ptr %13, align 8
  %112 = load double, ptr %15, align 8
  %113 = load double, ptr %12, align 8
  %114 = load double, ptr %16, align 8
  %115 = fmul double %113, %114
  %116 = fneg double %111
  %117 = call double @llvm.fmuladd.f64(double %116, double %112, double %115)
  %118 = load double, ptr %18, align 8
  %119 = fmul double %117, %118
  %120 = fptrunc double %119 to float
  %121 = getelementptr inbounds nuw %"class.pxrInternal_v0_24__pxrReserved__::GfMatrix3f", ptr %0, i32 0, i32 0
  %122 = call noundef ptr @_ZN32pxrInternal_v0_24__pxrReserved__12GfMatrixDataIfLi3ELi3EEixEi(ptr noundef nonnull align 4 dereferenceable(36) %121, i32 noundef 0)
  %123 = getelementptr inbounds float, ptr %122, i64 0
  store float %120, ptr %123, align 4
  %124 = load double, ptr %10, align 8
  %125 = load double, ptr %15, align 8
  %126 = load double, ptr %9, align 8
  %127 = load double, ptr %16, align 8
  %128 = fmul double %126, %127
  %129 = fneg double %128
  %130 = call double @llvm.fmuladd.f64(double %124, double %125, double %129)
  %131 = load double, ptr %18, align 8
  %132 = fmul double %130, %131
  %133 = fptrunc double %132 to float
  %134 = getelementptr inbounds nuw %"class.pxrInternal_v0_24__pxrReserved__::GfMatrix3f", ptr %0, i32 0, i32 0
  %135 = call noundef ptr @_ZN32pxrInternal_v0_24__pxrReserved__12GfMatrixDataIfLi3ELi3EEixEi(ptr noundef nonnull align 4 dereferenceable(36) %134, i32 noundef 0)
  %136 = getelementptr inbounds float, ptr %135, i64 1
  store float %133, ptr %136, align 4
  %137 = load double, ptr %10, align 8
  %138 = load double, ptr %12, align 8
  %139 = load double, ptr %9, align 8
  %140 = load double, ptr %13, align 8
  %141 = fmul double %139, %140
  %142 = fneg double %137
  %143 = call double @llvm.fmuladd.f64(double %142, double %138, double %141)
  %144 = load double, ptr %18, align 8
  %145 = fmul double %143, %144
  %146 = fptrunc double %145 to float
  %147 = getelementptr inbounds nuw %"class.pxrInternal_v0_24__pxrReserved__::GfMatrix3f", ptr %0, i32 0, i32 0
  %148 = call noundef ptr @_ZN32pxrInternal_v0_24__pxrReserved__12GfMatrixDataIfLi3ELi3EEixEi(ptr noundef nonnull align 4 dereferenceable(36) %147, i32 noundef 0)
  %149 = getelementptr inbounds float, ptr %148, i64 2
  store float %146, ptr %149, align 4
  %150 = load double, ptr %13, align 8
  %151 = load double, ptr %14, align 8
  %152 = load double, ptr %11, align 8
  %153 = load double, ptr %16, align 8
  %154 = fmul double %152, %153
  %155 = fneg double %154
  %156 = call double @llvm.fmuladd.f64(double %150, double %151, double %155)
  %157 = load double, ptr %18, align 8
  %158 = fmul double %156, %157
  %159 = fptrunc double %158 to float
  %160 = getelementptr inbounds nuw %"class.pxrInternal_v0_24__pxrReserved__::GfMatrix3f", ptr %0, i32 0, i32 0
  %161 = call noundef ptr @_ZN32pxrInternal_v0_24__pxrReserved__12GfMatrixDataIfLi3ELi3EEixEi(ptr noundef nonnull align 4 dereferenceable(36) %160, i32 noundef 1)
  %162 = getelementptr inbounds float, ptr %161, i64 0
  store float %159, ptr %162, align 4
  %163 = load double, ptr %10, align 8
  %164 = load double, ptr %14, align 8
  %165 = load double, ptr %8, align 8
  %166 = load double, ptr %16, align 8
  %167 = fmul double %165, %166
  %168 = fneg double %163
  %169 = call double @llvm.fmuladd.f64(double %168, double %164, double %167)
  %170 = load double, ptr %18, align 8
  %171 = fmul double %169, %170
  %172 = fptrunc double %171 to float
  %173 = getelementptr inbounds nuw %"class.pxrInternal_v0_24__pxrReserved__::GfMatrix3f", ptr %0, i32 0, i32 0
  %174 = call noundef ptr @_ZN32pxrInternal_v0_24__pxrReserved__12GfMatrixDataIfLi3ELi3EEixEi(ptr noundef nonnull align 4 dereferenceable(36) %173, i32 noundef 1)
  %175 = getelementptr inbounds float, ptr %174, i64 1
  store float %172, ptr %175, align 4
  %176 = load double, ptr %10, align 8
  %177 = load double, ptr %11, align 8
  %178 = load double, ptr %8, align 8
  %179 = load double, ptr %13, align 8
  %180 = fmul double %178, %179
  %181 = fneg double %180
  %182 = call double @llvm.fmuladd.f64(double %176, double %177, double %181)
  %183 = load double, ptr %18, align 8
  %184 = fmul double %182, %183
  %185 = fptrunc double %184 to float
  %186 = getelementptr inbounds nuw %"class.pxrInternal_v0_24__pxrReserved__::GfMatrix3f", ptr %0, i32 0, i32 0
  %187 = call noundef ptr @_ZN32pxrInternal_v0_24__pxrReserved__12GfMatrixDataIfLi3ELi3EEixEi(ptr noundef nonnull align 4 dereferenceable(36) %186, i32 noundef 1)
  %188 = getelementptr inbounds float, ptr %187, i64 2
  store float %185, ptr %188, align 4
  %189 = load double, ptr %12, align 8
  %190 = load double, ptr %14, align 8
  %191 = load double, ptr %11, align 8
  %192 = load double, ptr %15, align 8
  %193 = fmul double %191, %192
  %194 = fneg double %189
  %195 = call double @llvm.fmuladd.f64(double %194, double %190, double %193)
  %196 = load double, ptr %18, align 8
  %197 = fmul double %195, %196
  %198 = fptrunc double %197 to float
  %199 = getelementptr inbounds nuw %"class.pxrInternal_v0_24__pxrReserved__::GfMatrix3f", ptr %0, i32 0, i32 0
  %200 = call noundef ptr @_ZN32pxrInternal_v0_24__pxrReserved__12GfMatrixDataIfLi3ELi3EEixEi(ptr noundef nonnull align 4 dereferenceable(36) %199, i32 noundef 2)
  %201 = getelementptr inbounds float, ptr %200, i64 0
  store float %198, ptr %201, align 4
  %202 = load double, ptr %9, align 8
  %203 = load double, ptr %14, align 8
  %204 = load double, ptr %8, align 8
  %205 = load double, ptr %15, align 8
  %206 = fmul double %204, %205
  %207 = fneg double %206
  %208 = call double @llvm.fmuladd.f64(double %202, double %203, double %207)
  %209 = load double, ptr %18, align 8
  %210 = fmul double %208, %209
  %211 = fptrunc double %210 to float
  %212 = getelementptr inbounds nuw %"class.pxrInternal_v0_24__pxrReserved__::GfMatrix3f", ptr %0, i32 0, i32 0
  %213 = call noundef ptr @_ZN32pxrInternal_v0_24__pxrReserved__12GfMatrixDataIfLi3ELi3EEixEi(ptr noundef nonnull align 4 dereferenceable(36) %212, i32 noundef 2)
  %214 = getelementptr inbounds float, ptr %213, i64 1
  store float %211, ptr %214, align 4
  %215 = load double, ptr %9, align 8
  %216 = load double, ptr %11, align 8
  %217 = load double, ptr %8, align 8
  %218 = load double, ptr %12, align 8
  %219 = fmul double %217, %218
  %220 = fneg double %215
  %221 = call double @llvm.fmuladd.f64(double %220, double %216, double %219)
  %222 = load double, ptr %18, align 8
  %223 = fmul double %221, %222
  %224 = fptrunc double %223 to float
  %225 = getelementptr inbounds nuw %"class.pxrInternal_v0_24__pxrReserved__::GfMatrix3f", ptr %0, i32 0, i32 0
  %226 = call noundef ptr @_ZN32pxrInternal_v0_24__pxrReserved__12GfMatrixDataIfLi3ELi3EEixEi(ptr noundef nonnull align 4 dereferenceable(36) %225, i32 noundef 2)
  %227 = getelementptr inbounds float, ptr %226, i64 2
  store float %224, ptr %227, align 4
  br label %230

228:                                              ; preds = %103
  %229 = call noundef nonnull align 4 dereferenceable(36) ptr @_ZN32pxrInternal_v0_24__pxrReserved__10GfMatrix3f8SetScaleEf(ptr noundef nonnull align 4 dereferenceable(36) %0, float noundef 0x47EFFFFFE0000000)
  br label %230

230:                                              ; preds = %228, %108
  ret void
}