; Function Attrs: mustprogress nofree norecurse nosync nounwind willreturn memory(argmem: readwrite) uwtable
define void @_ZNK32pxrInternal_v0_24__pxrReserved__10GfMatrix3f10GetInverseEPdd(ptr dead_on_unwind noalias nocapture writable writeonly sret(%"class.pxrInternal_v0_24__pxrReserved__::GfMatrix3f") align 4 %0, ptr nocapture noundef nonnull readonly align 4 dereferenceable(36) %1, ptr noundef writeonly %2, double noundef %3) local_unnamed_addr #2 align 2 {
  %5 = load float, ptr %1, align 4
  %6 = fpext float %5 to double
  %7 = getelementptr inbounds i8, ptr %1, i64 4
  %8 = load float, ptr %7, align 4
  %9 = fpext float %8 to double
  %10 = getelementptr inbounds i8, ptr %1, i64 8
  %11 = load float, ptr %10, align 4
  %12 = fpext float %11 to double
  %13 = getelementptr inbounds i8, ptr %1, i64 12
  %14 = load float, ptr %13, align 4
  %15 = fpext float %14 to double
  %16 = getelementptr inbounds i8, ptr %1, i64 16
  %17 = load float, ptr %16, align 4
  %18 = fpext float %17 to double
  %19 = getelementptr inbounds i8, ptr %1, i64 20
  %20 = load float, ptr %19, align 4
  %21 = fpext float %20 to double
  %22 = getelementptr inbounds i8, ptr %1, i64 24
  %23 = load float, ptr %22, align 4
  %24 = fpext float %23 to double
  %25 = getelementptr inbounds i8, ptr %1, i64 28
  %26 = load float, ptr %25, align 4
  %27 = fpext float %26 to double
  %28 = getelementptr inbounds i8, ptr %1, i64 32
  %29 = load float, ptr %28, align 4
  %30 = fpext float %29 to double
  %31 = fmul double %9, %21
  %32 = fmul double %31, %24
  %33 = fneg double %18
  %34 = fmul double %12, %33
  %35 = tail call double @llvm.fmuladd.f64(double %34, double %24, double %32)
  %36 = fmul double %12, %15
  %37 = tail call double @llvm.fmuladd.f64(double %36, double %27, double %35)
  %38 = fneg double %21
  %39 = fmul double %6, %38
  %40 = tail call double @llvm.fmuladd.f64(double %39, double %27, double %37)
  %41 = fneg double %15
  %42 = fmul double %9, %41
  %43 = tail call double @llvm.fmuladd.f64(double %42, double %30, double %40)
  %44 = fmul double %6, %18
  %45 = tail call double @llvm.fmuladd.f64(double %44, double %30, double %43)
  %.not = icmp eq ptr %2, null
  br i1 %.not, label %47, label %46

46:                                               ; preds = %4
  store double %45, ptr %2, align 8
  br label %47

47:                                               ; preds = %46, %4
  %48 = tail call noundef double @llvm.fabs.f64(double %45)
  %49 = fcmp ogt double %48, %3
  br i1 %49, label %50, label %89

50:                                               ; preds = %47
  %51 = fdiv double 1.000000e+00, %45
  %52 = fmul double %18, %30
  %53 = tail call double @llvm.fmuladd.f64(double %38, double %27, double %52)
  %54 = fmul double %53, %51
  %55 = fptrunc double %54 to float
  %56 = fneg double %30
  %57 = fmul double %9, %56
  %58 = tail call double @llvm.fmuladd.f64(double %12, double %27, double %57)
  %59 = fmul double %58, %51
  %60 = fptrunc double %59 to float
  %61 = fneg double %12
  %62 = tail call double @llvm.fmuladd.f64(double %61, double %18, double %31)
  %63 = fmul double %62, %51
  %64 = fptrunc double %63 to float
  %65 = fmul double %15, %56
  %66 = tail call double @llvm.fmuladd.f64(double %21, double %24, double %65)
  %67 = fmul double %66, %51
  %68 = fptrunc double %67 to float
  %69 = fmul double %6, %30
  %70 = tail call double @llvm.fmuladd.f64(double %61, double %24, double %69)
  %71 = fmul double %70, %51
  %72 = fptrunc double %71 to float
  %73 = tail call double @llvm.fmuladd.f64(double %12, double %15, double %39)
  %74 = fmul double %73, %51
  %75 = fptrunc double %74 to float
  %76 = fmul double %15, %27
  %77 = tail call double @llvm.fmuladd.f64(double %33, double %24, double %76)
  %78 = fmul double %77, %51
  %79 = fptrunc double %78 to float
  %80 = fneg double %27
  %81 = fmul double %6, %80
  %82 = tail call double @llvm.fmuladd.f64(double %9, double %24, double %81)
  %83 = fmul double %82, %51
  %84 = fptrunc double %83 to float
  %85 = fneg double %9
  %86 = tail call double @llvm.fmuladd.f64(double %85, double %15, double %44)
  %87 = fmul double %86, %51
  %88 = fptrunc double %87 to float
  br label %89

89:                                               ; preds = %47, %50
  %.sink77 = phi float [ %55, %50 ], [ 0x47EFFFFFE0000000, %47 ]
  %.sink76 = phi float [ %60, %50 ], [ 0.000000e+00, %47 ]
  %.sink75 = phi float [ %64, %50 ], [ 0.000000e+00, %47 ]
  %.sink74 = phi float [ %68, %50 ], [ 0.000000e+00, %47 ]
  %.sink73 = phi float [ %72, %50 ], [ 0x47EFFFFFE0000000, %47 ]
  %.sink72 = phi float [ %75, %50 ], [ 0.000000e+00, %47 ]
  %.sink71 = phi float [ %79, %50 ], [ 0.000000e+00, %47 ]
  %.sink70 = phi float [ %84, %50 ], [ 0.000000e+00, %47 ]
  %.sink = phi float [ %88, %50 ], [ 0x47EFFFFFE0000000, %47 ]
  store float %.sink77, ptr %0, align 4
  %90 = getelementptr inbounds i8, ptr %0, i64 4
  store float %.sink76, ptr %90, align 4
  %91 = getelementptr inbounds i8, ptr %0, i64 8
  store float %.sink75, ptr %91, align 4
  %92 = getelementptr inbounds i8, ptr %0, i64 12
  store float %.sink74, ptr %92, align 4
  %93 = getelementptr inbounds i8, ptr %0, i64 16
  store float %.sink73, ptr %93, align 4
  %94 = getelementptr inbounds i8, ptr %0, i64 20
  store float %.sink72, ptr %94, align 4
  %95 = getelementptr inbounds i8, ptr %0, i64 24
  store float %.sink71, ptr %95, align 4
  %96 = getelementptr inbounds i8, ptr %0, i64 28
  store float %.sink70, ptr %96, align 4
  %97 = getelementptr inbounds i8, ptr %0, i64 32
  store float %.sink, ptr %97, align 4
  ret void
}